target datalayout = "e-m:e-p270:32:32-p271:32:32-p272:64:64-i64:64-i128:128-f80:128-n8:16:32:64-S128"
target triple = "x86_64-pc-linux-gnu"

%"class.cv::videostab::InpainterBase" = type { ptr, i32, i32, ptr, ptr, ptr, ptr }
%"class.cv::videostab::ConsistentMosaicInpainter" = type <{ %"class.cv::videostab::InpainterBase", float, [4 x i8] }>

; Function Attrs: mustprogress nounwind uwtable
define linkonce_odr hidden void @_ZN2cv9videostab13InpainterBaseD2Ev(ptr noundef nonnull align 8 dereferenceable(48) %0) unnamed_addr #6 comdat align 2 {
  %2 = alloca ptr, align 8
  store ptr %0, ptr %2, align 8, !tbaa !23
  ret void
}

; Function Attrs: mustprogress nounwind uwtable
define linkonce_odr hidden void @_ZN2cv9videostab25ConsistentMosaicInpainter14setStdevThreshEf(ptr noundef nonnull align 8 dereferenceable(52) %0, float noundef %1) #6 comdat align 2 {
  %3 = alloca ptr, align 8
  %4 = alloca float, align 4
  store ptr %0, ptr %3, align 8, !tbaa !49
  store float %1, ptr %4, align 4, !tbaa !51
  %5 = load ptr, ptr %3, align 8
  %6 = load float, ptr %4, align 4, !tbaa !51
  %7 = getelementptr inbounds nuw %"class.cv::videostab::ConsistentMosaicInpainter", ptr %5, i32 0, i32 1
  store float %6, ptr %7, align 8, !tbaa !53
  ret void
}

; Function Attrs: mustprogress nounwind uwtable
define linkonce_odr hidden void @_ZN2cv9videostab13InpainterBaseC2Ev(ptr noundef nonnull align 8 dereferenceable(48) %0) unnamed_addr #6 comdat align 2 {
  %2 = alloca ptr, align 8
  store ptr %0, ptr %2, align 8, !tbaa !23
  %3 = load ptr, ptr %2, align 8
  store ptr getelementptr inbounds inrange(-16, 120) ({ [17 x ptr] }, ptr @_ZTVN2cv9videostab13InpainterBaseE, i32 0, i32 0, i32 2), ptr %3, align 8, !tbaa !12
  %4 = getelementptr inbounds nuw %"class.cv::videostab::InpainterBase", ptr %3, i32 0, i32 1
  store i32 0, ptr %4, align 8, !tbaa !25
  %5 = getelementptr inbounds nuw %"class.cv::videostab::InpainterBase", ptr %3, i32 0, i32 2
  store i32 7, ptr %5, align 4, !tbaa !34
  %6 = getelementptr inbounds nuw %"class.cv::videostab::InpainterBase", ptr %3, i32 0, i32 3
  store ptr null, ptr %6, align 8, !tbaa !31
  %7 = getelementptr inbounds nuw %"class.cv::videostab::InpainterBase", ptr %3, i32 0, i32 4
  store ptr null, ptr %7, align 8, !tbaa !36
  %8 = getelementptr inbounds nuw %"class.cv::videostab::InpainterBase", ptr %3, i32 0, i32 5
  store ptr null, ptr %8, align 8, !tbaa !38
  %9 = getelementptr inbounds nuw %"class.cv::videostab::InpainterBase", ptr %3, i32 0, i32 6
  store ptr null, ptr %9, align 8, !tbaa !40
  ret void
}

; Function Attrs: mustprogress uwtable
define void @_ZN2cv9videostab25ConsistentMosaicInpainterC2Ev(ptr noundef nonnull align 8 dereferenceable(52) %0) unnamed_addr #4 align 2 personality ptr @__gxx_personality_v0 {
  %2 = alloca ptr, align 8
  %3 = alloca ptr, align 8
  %4 = alloca i32, align 4
  store ptr %0, ptr %2, align 8, !tbaa !49
  %5 = load ptr, ptr %2, align 8
  call void @_ZN2cv9videostab13InpainterBaseC2Ev(ptr noundef nonnull align 8 dereferenceable(48) %5)
  store ptr getelementptr inbounds inrange(-16, 120) ({ [17 x ptr] }, ptr @_ZTVN2cv9videostab25ConsistentMosaicInpainterE, i32 0, i32 0, i32 2), ptr %5, align 8, !tbaa !12
  invoke void @_ZN2cv9videostab25ConsistentMosaicInpainter14setStdevThreshEf(ptr noundef nonnull align 8 dereferenceable(52) %5, float noundef 2.000000e+01)
          to label %6 unwind label %7

6:                                                ; preds = %1
  ret void

7:                                                ; preds = %1
  %8 = landingpad { ptr, i32 }
          cleanup
  %9 = extractvalue { ptr, i32 } %8, 0
  store ptr %9, ptr %3, align 8
  %10 = extractvalue { ptr, i32 } %8, 1
  store i32 %10, ptr %4, align 4
  call void @_ZN2cv9videostab13InpainterBaseD2Ev(ptr noundef nonnull align 8 dereferenceable(48) %5) #3
  br label %11

11:                                               ; preds = %7
  %12 = load ptr, ptr %3, align 8
  %13 = load i32, ptr %4, align 4
  %14 = insertvalue { ptr, i32 } poison, ptr %12, 0
  %15 = insertvalue { ptr, i32 } %14, i32 %13, 1
  resume { ptr, i32 } %15
}