; Function Attrs: mustprogress nofree norecurse nosync nounwind willreturn memory(argmem: write) uwtable
define void @_ZN2cv9videostab25ConsistentMosaicInpainterC2Ev(ptr noundef nonnull writeonly align 8 captures(none) dereferenceable(52) initializes((0, 52)) %0) unnamed_addr #7 align 2 personality ptr @__gxx_personality_v0 {
  %2 = getelementptr inbounds nuw i8, ptr %0, i64 8
  store i32 0, ptr %2, align 8, !tbaa !10
  %3 = getelementptr inbounds nuw i8, ptr %0, i64 12
  store i32 7, ptr %3, align 4, !tbaa !26
  %4 = getelementptr inbounds nuw i8, ptr %0, i64 16
  tail call void @llvm.memset.p0.i64(ptr noundef nonnull align 8 dereferenceable(32) %4, i8 0, i64 32, i1 false)
  store ptr getelementptr inbounds nuw inrange(-16, 120) (i8, ptr @_ZTVN2cv9videostab25ConsistentMosaicInpainterE, i64 16), ptr %0, align 8, !tbaa !20
  %5 = getelementptr inbounds nuw i8, ptr %0, i64 48
  store float 2.000000e+01, ptr %5, align 8, !tbaa !38
  ret void
}